target datalayout = "e-m:e-p270:32:32-p271:32:32-p272:64:64-i64:64-i128:128-f80:128-n8:16:32:64-S128"
target triple = "x86_64-pc-linux-gnu"

%struct.HeapScanDescData = type { %struct.TableScanDescData, i32, i32, i32, i8, i16, i32, i32, ptr, %struct.HeapTupleData, ptr, i32, i32, ptr, i32, i32, [291 x i16] }
%struct.TableScanDescData = type { ptr, ptr, i32, ptr, %union.anon, i32, ptr }
%union.anon = type { %struct.TBMIterator }
%struct.TBMIterator = type { i8, %union.anon.0 }
%union.anon.0 = type { ptr }
%struct.HeapTupleData = type { i32, %struct.ItemPointerData, i32, ptr }
%struct.ItemPointerData = type { %struct.BlockIdData, i16 }
%struct.BlockIdData = type { i16, i16 }
%struct.RelationData = type { %struct.RelFileLocator, ptr, i32, i32, i8, i8, i8, i8, i8, i32, i32, i32, i32, ptr, ptr, i32, %struct.LockInfoData, ptr, ptr, ptr, ptr, ptr, i8, ptr, ptr, ptr, ptr, ptr, ptr, i32, ptr, i8, ptr, ptr, i32, i8, i32, ptr, i8, ptr, ptr, ptr, ptr, ptr, ptr, ptr, i32, ptr, ptr, ptr, ptr, ptr, ptr, ptr, ptr, ptr, ptr, ptr, ptr, ptr, ptr, ptr, ptr, ptr, ptr, ptr, i32, i8, ptr }
%struct.RelFileLocator = type { i32, i32, i32 }
%struct.LockInfoData = type { %struct.LockRelId }
%struct.LockRelId = type { i32, i32 }
%struct.PgStat_TableStatus = type { i32, i8, ptr, %struct.PgStat_TableCounts, ptr }
%struct.PgStat_TableCounts = type { i64, i64, i64, i64, i64, i64, i64, i64, i8, i64, i64, i64, i64, i64 }
%struct.TupleTableSlot = type { i32, i16, i16, ptr, ptr, ptr, ptr, ptr, %struct.ItemPointerData, i32 }
%struct.TupleTableSlotOps = type { i64, ptr, ptr, ptr, ptr, ptr, ptr, ptr, ptr, ptr, ptr, ptr, ptr }
%struct.anon = type { %struct.ItemPointerData, %struct.ItemPointerData }

; Function Attrs: inlinehint nounwind uwtable
define internal ptr @ExecClearTuple(ptr noundef %0) #3 {
  %2 = alloca ptr, align 8
  store ptr %0, ptr %2, align 8
  %3 = load ptr, ptr %2, align 8
  %4 = getelementptr inbounds nuw %struct.TupleTableSlot, ptr %3, i32 0, i32 3
  %5 = load ptr, ptr %4, align 8
  %6 = getelementptr inbounds nuw %struct.TupleTableSlotOps, ptr %5, i32 0, i32 3
  %7 = load ptr, ptr %6, align 8
  %8 = load ptr, ptr %2, align 8
  call void %7(ptr noundef %8)
  %9 = load ptr, ptr %2, align 8
  ret ptr %9
}

; Function Attrs: nounwind uwtable
define dso_local zeroext i1 @heap_getnextslot_tidrange(ptr noundef %0, i32 noundef %1, ptr noundef %2) #0 {
  %4 = alloca i1, align 1
  %5 = alloca ptr, align 8
  %6 = alloca i32, align 4
  %7 = alloca ptr, align 8
  %8 = alloca ptr, align 8
  %9 = alloca ptr, align 8
  %10 = alloca ptr, align 8
  %11 = alloca i32, align 4
  store ptr %0, ptr %5, align 8
  store i32 %1, ptr %6, align 4
  store ptr %2, ptr %7, align 8
  call void @llvm.lifetime.start.p0(i64 8, ptr %8) #10
  %12 = load ptr, ptr %5, align 8
  store ptr %12, ptr %8, align 8
  call void @llvm.lifetime.start.p0(i64 8, ptr %9) #10
  %13 = load ptr, ptr %5, align 8
  %14 = getelementptr inbounds nuw %struct.TableScanDescData, ptr %13, i32 0, i32 4
  %15 = getelementptr inbounds nuw %struct.anon, ptr %14, i32 0, i32 0
  store ptr %15, ptr %9, align 8
  call void @llvm.lifetime.start.p0(i64 8, ptr %10) #10
  %16 = load ptr, ptr %5, align 8
  %17 = getelementptr inbounds nuw %struct.TableScanDescData, ptr %16, i32 0, i32 4
  %18 = getelementptr inbounds nuw %struct.anon, ptr %17, i32 0, i32 1
  store ptr %18, ptr %10, align 8
  br label %19

19:                                               ; preds = %79, %65, %3
  %20 = load ptr, ptr %5, align 8
  %21 = getelementptr inbounds nuw %struct.TableScanDescData, ptr %20, i32 0, i32 5
  %22 = load i32, ptr %21, align 8
  %23 = and i32 %22, 256
  %24 = icmp ne i32 %23, 0
  br i1 %24, label %25, label %34

25:                                               ; preds = %19
  %26 = load ptr, ptr %8, align 8
  %27 = load i32, ptr %6, align 4
  %28 = load ptr, ptr %5, align 8
  %29 = getelementptr inbounds nuw %struct.TableScanDescData, ptr %28, i32 0, i32 2
  %30 = load i32, ptr %29, align 8
  %31 = load ptr, ptr %5, align 8
  %32 = getelementptr inbounds nuw %struct.TableScanDescData, ptr %31, i32 0, i32 3
  %33 = load ptr, ptr %32, align 8
  call void @heapgettup_pagemode(ptr noundef %26, i32 noundef %27, i32 noundef %30, ptr noundef %33)
  br label %43

34:                                               ; preds = %19
  %35 = load ptr, ptr %8, align 8
  %36 = load i32, ptr %6, align 4
  %37 = load ptr, ptr %5, align 8
  %38 = getelementptr inbounds nuw %struct.TableScanDescData, ptr %37, i32 0, i32 2
  %39 = load i32, ptr %38, align 8
  %40 = load ptr, ptr %5, align 8
  %41 = getelementptr inbounds nuw %struct.TableScanDescData, ptr %40, i32 0, i32 3
  %42 = load ptr, ptr %41, align 8
  call void @heapgettup(ptr noundef %35, i32 noundef %36, i32 noundef %39, ptr noundef %42)
  br label %43

43:                                               ; preds = %34, %25
  %44 = load ptr, ptr %8, align 8
  %45 = getelementptr inbounds nuw %struct.HeapScanDescData, ptr %44, i32 0, i32 9
  %46 = getelementptr inbounds nuw %struct.HeapTupleData, ptr %45, i32 0, i32 3
  %47 = load ptr, ptr %46, align 8
  %48 = icmp eq ptr %47, null
  br i1 %48, label %49, label %52

49:                                               ; preds = %43
  %50 = load ptr, ptr %7, align 8
  %51 = call ptr @ExecClearTuple(ptr noundef %50)
  store i1 false, ptr %4, align 1
  store i32 1, ptr %11, align 4
  br label %132

52:                                               ; preds = %43
  %53 = load ptr, ptr %8, align 8
  %54 = getelementptr inbounds nuw %struct.HeapScanDescData, ptr %53, i32 0, i32 9
  %55 = getelementptr inbounds nuw %struct.HeapTupleData, ptr %54, i32 0, i32 1
  %56 = load ptr, ptr %9, align 8
  %57 = call i32 @ItemPointerCompare(ptr noundef %55, ptr noundef %56)
  %58 = icmp slt i32 %57, 0
  br i1 %58, label %59, label %66

59:                                               ; preds = %52
  %60 = load ptr, ptr %7, align 8
  %61 = call ptr @ExecClearTuple(ptr noundef %60)
  %62 = load i32, ptr %6, align 4
  %63 = icmp eq i32 %62, -1
  br i1 %63, label %64, label %65

64:                                               ; preds = %59
  store i1 false, ptr %4, align 1
  store i32 1, ptr %11, align 4
  br label %132

65:                                               ; preds = %59
  br label %19

66:                                               ; preds = %52
  %67 = load ptr, ptr %8, align 8
  %68 = getelementptr inbounds nuw %struct.HeapScanDescData, ptr %67, i32 0, i32 9
  %69 = getelementptr inbounds nuw %struct.HeapTupleData, ptr %68, i32 0, i32 1
  %70 = load ptr, ptr %10, align 8
  %71 = call i32 @ItemPointerCompare(ptr noundef %69, ptr noundef %70)
  %72 = icmp sgt i32 %71, 0
  br i1 %72, label %73, label %80

73:                                               ; preds = %66
  %74 = load ptr, ptr %7, align 8
  %75 = call ptr @ExecClearTuple(ptr noundef %74)
  %76 = load i32, ptr %6, align 4
  %77 = icmp eq i32 %76, 1
  br i1 %77, label %78, label %79

78:                                               ; preds = %73
  store i1 false, ptr %4, align 1
  store i32 1, ptr %11, align 4
  br label %132

79:                                               ; preds = %73
  br label %19

80:                                               ; preds = %66
  br label %81

81:                                               ; preds = %80
  br label %82

82:                                               ; preds = %81
  %83 = load ptr, ptr %8, align 8
  %84 = getelementptr inbounds nuw %struct.HeapScanDescData, ptr %83, i32 0, i32 0
  %85 = getelementptr inbounds nuw %struct.TableScanDescData, ptr %84, i32 0, i32 0
  %86 = load ptr, ptr %85, align 8
  %87 = getelementptr inbounds nuw %struct.RelationData, ptr %86, i32 0, i32 68
  %88 = load ptr, ptr %87, align 8
  %89 = icmp ne ptr %88, null
  %90 = zext i1 %89 to i32
  %91 = icmp ne i32 %90, 0
  %92 = zext i1 %91 to i32
  %93 = sext i32 %92 to i64
  %94 = call i64 @llvm.expect.i64(i64 %93, i64 1)
  %95 = icmp ne i64 %94, 0
  br i1 %95, label %96, label %97

96:                                               ; preds = %82
  br i1 true, label %111, label %122

97:                                               ; preds = %82
  %98 = load ptr, ptr %8, align 8
  %99 = getelementptr inbounds nuw %struct.HeapScanDescData, ptr %98, i32 0, i32 0
  %100 = getelementptr inbounds nuw %struct.TableScanDescData, ptr %99, i32 0, i32 0
  %101 = load ptr, ptr %100, align 8
  %102 = getelementptr inbounds nuw %struct.RelationData, ptr %101, i32 0, i32 67
  %103 = load i8, ptr %102, align 4, !range !4, !noundef !5
  %104 = trunc i8 %103 to i1
  br i1 %104, label %105, label %110

105:                                              ; preds = %97
  %106 = load ptr, ptr %8, align 8
  %107 = getelementptr inbounds nuw %struct.HeapScanDescData, ptr %106, i32 0, i32 0
  %108 = getelementptr inbounds nuw %struct.TableScanDescData, ptr %107, i32 0, i32 0
  %109 = load ptr, ptr %108, align 8
  call void @pgstat_assoc_relation(ptr noundef %109)
  br i1 true, label %111, label %122

110:                                              ; preds = %97
  br i1 false, label %111, label %122

111:                                              ; preds = %110, %105, %96
  %112 = load ptr, ptr %8, align 8
  %113 = getelementptr inbounds nuw %struct.HeapScanDescData, ptr %112, i32 0, i32 0
  %114 = getelementptr inbounds nuw %struct.TableScanDescData, ptr %113, i32 0, i32 0
  %115 = load ptr, ptr %114, align 8
  %116 = getelementptr inbounds nuw %struct.RelationData, ptr %115, i32 0, i32 68
  %117 = load ptr, ptr %116, align 8
  %118 = getelementptr inbounds nuw %struct.PgStat_TableStatus, ptr %117, i32 0, i32 3
  %119 = getelementptr inbounds nuw %struct.PgStat_TableCounts, ptr %118, i32 0, i32 1
  %120 = load i64, ptr %119, align 8
  %121 = add i64 %120, 1
  store i64 %121, ptr %119, align 8
  br label %122

122:                                              ; preds = %111, %110, %105, %96
  br label %123

123:                                              ; preds = %122
  br label %124

124:                                              ; preds = %123
  %125 = load ptr, ptr %8, align 8
  %126 = getelementptr inbounds nuw %struct.HeapScanDescData, ptr %125, i32 0, i32 9
  %127 = load ptr, ptr %7, align 8
  %128 = load ptr, ptr %8, align 8
  %129 = getelementptr inbounds nuw %struct.HeapScanDescData, ptr %128, i32 0, i32 7
  %130 = load i32, ptr %129, align 4
  %131 = call ptr @ExecStoreBufferHeapTuple(ptr noundef %126, ptr noundef %127, i32 noundef %130)
  store i1 true, ptr %4, align 1
  store i32 1, ptr %11, align 4
  br label %132

132:                                              ; preds = %124, %78, %64, %49
  call void @llvm.lifetime.end.p0(i64 8, ptr %10) #10
  call void @llvm.lifetime.end.p0(i64 8, ptr %9) #10
  call void @llvm.lifetime.end.p0(i64 8, ptr %8) #10
  %133 = load i1, ptr %4, align 1
  ret i1 %133
}