; Function Attrs: nounwind uwtable
define dso_local noundef zeroext i1 @heap_getnextslot_tidrange(ptr noundef %0, i32 noundef %1, ptr noundef %2) local_unnamed_addr #2 {
  %4 = getelementptr inbounds nuw i8, ptr %0, i64 32
  %5 = getelementptr inbounds nuw i8, ptr %0, i64 38
  %6 = getelementptr inbounds nuw i8, ptr %0, i64 48
  %7 = getelementptr inbounds nuw i8, ptr %0, i64 16
  %8 = getelementptr inbounds nuw i8, ptr %0, i64 24
  %9 = getelementptr inbounds nuw i8, ptr %0, i64 112
  %10 = getelementptr inbounds nuw i8, ptr %0, i64 100
  %11 = getelementptr inbounds nuw i8, ptr %2, i64 8
  switch i32 %1, label %.split.split [
    i32 1, label %.split.us.split
    i32 -1, label %.split.split.us
  ]

.split.us.split:                                  ; preds = %3, %.backedge.us
  %12 = load i32, ptr %6, align 8
  %13 = and i32 %12, 256
  %.not.us = icmp eq i32 %13, 0
  %14 = load i32, ptr %7, align 8
  %15 = load ptr, ptr %8, align 8
  br i1 %.not.us, label %17, label %16

16:                                               ; preds = %.split.us.split
  tail call fastcc void @heapgettup_pagemode(ptr noundef nonnull %0, i32 noundef 1, i32 noundef %14, ptr noundef %15)
  br label %18

17:                                               ; preds = %.split.us.split
  tail call fastcc void @heapgettup(ptr noundef nonnull %0, i32 noundef 1, i32 noundef %14, ptr noundef %15)
  br label %18

18:                                               ; preds = %17, %16
  %19 = load ptr, ptr %9, align 8
  %20 = icmp eq ptr %19, null
  br i1 %20, label %.split33.us, label %21

21:                                               ; preds = %18
  %22 = tail call i32 @ItemPointerCompare(ptr noundef nonnull %10, ptr noundef nonnull %4) #13
  %23 = icmp slt i32 %22, 0
  br i1 %23, label %.backedge.us, label %.split39

.split39:                                         ; preds = %21
  %24 = tail call i32 @ItemPointerCompare(ptr noundef nonnull %10, ptr noundef nonnull %5) #13
  %25 = icmp sgt i32 %24, 0
  br i1 %25, label %.loopexit.split.us, label %.split35.us

.loopexit.split.us:                               ; preds = %.split39
  %26 = load ptr, ptr %11, align 8
  %27 = getelementptr inbounds nuw i8, ptr %26, i64 24
  %28 = load ptr, ptr %27, align 8
  tail call void %28(ptr noundef %2) #13
  br label %.loopexit

.backedge.us:                                     ; preds = %21
  %29 = load ptr, ptr %11, align 8
  %30 = getelementptr inbounds nuw i8, ptr %29, i64 24
  %31 = load ptr, ptr %30, align 8
  tail call void %31(ptr noundef %2) #13
  br label %.split.us.split

.split.split.us:                                  ; preds = %3, %.backedge.us37
  %32 = load i32, ptr %6, align 8
  %33 = and i32 %32, 256
  %.not.us36 = icmp eq i32 %33, 0
  %34 = load i32, ptr %7, align 8
  %35 = load ptr, ptr %8, align 8
  br i1 %.not.us36, label %37, label %36

36:                                               ; preds = %.split.split.us
  tail call fastcc void @heapgettup_pagemode(ptr noundef nonnull %0, i32 noundef -1, i32 noundef %34, ptr noundef %35)
  br label %38

37:                                               ; preds = %.split.split.us
  tail call fastcc void @heapgettup(ptr noundef nonnull %0, i32 noundef -1, i32 noundef %34, ptr noundef %35)
  br label %38

38:                                               ; preds = %37, %36
  %39 = load ptr, ptr %9, align 8
  %40 = icmp eq ptr %39, null
  br i1 %40, label %.split33.us, label %41

41:                                               ; preds = %38
  %42 = tail call i32 @ItemPointerCompare(ptr noundef nonnull %10, ptr noundef nonnull %4) #13
  %43 = icmp slt i32 %42, 0
  br i1 %43, label %.loopexit.split.split.us, label %44

44:                                               ; preds = %41
  %45 = tail call i32 @ItemPointerCompare(ptr noundef nonnull %10, ptr noundef nonnull %5) #13
  %46 = icmp sgt i32 %45, 0
  br i1 %46, label %.backedge.us37, label %.split35.us

.backedge.us37:                                   ; preds = %44
  %47 = load ptr, ptr %11, align 8
  %48 = getelementptr inbounds nuw i8, ptr %47, i64 24
  %49 = load ptr, ptr %48, align 8
  tail call void %49(ptr noundef %2) #13
  br label %.split.split.us

.loopexit.split.split.us:                         ; preds = %41
  %50 = load ptr, ptr %11, align 8
  %51 = getelementptr inbounds nuw i8, ptr %50, i64 24
  %52 = load ptr, ptr %51, align 8
  tail call void %52(ptr noundef %2) #13
  br label %.loopexit

.split.split:                                     ; preds = %3, %.backedge
  %53 = load i32, ptr %6, align 8
  %54 = and i32 %53, 256
  %.not = icmp eq i32 %54, 0
  %55 = load i32, ptr %7, align 8
  %56 = load ptr, ptr %8, align 8
  br i1 %.not, label %58, label %57

57:                                               ; preds = %.split.split
  tail call fastcc void @heapgettup_pagemode(ptr noundef nonnull %0, i32 noundef %1, i32 noundef %55, ptr noundef %56)
  br label %59

58:                                               ; preds = %.split.split
  tail call fastcc void @heapgettup(ptr noundef nonnull %0, i32 noundef %1, i32 noundef %55, ptr noundef %56)
  br label %59

59:                                               ; preds = %58, %57
  %60 = load ptr, ptr %9, align 8
  %61 = icmp eq ptr %60, null
  br i1 %61, label %.split33.us, label %65

.split33.us:                                      ; preds = %38, %18, %59
  %62 = load ptr, ptr %11, align 8
  %63 = getelementptr inbounds nuw i8, ptr %62, i64 24
  %64 = load ptr, ptr %63, align 8
  tail call void %64(ptr noundef %2) #13
  br label %.loopexit

65:                                               ; preds = %59
  %66 = tail call i32 @ItemPointerCompare(ptr noundef nonnull %10, ptr noundef nonnull %4) #13
  %67 = icmp slt i32 %66, 0
  br i1 %67, label %.backedge, label %71

.backedge:                                        ; preds = %65, %71
  %68 = load ptr, ptr %11, align 8
  %69 = getelementptr inbounds nuw i8, ptr %68, i64 24
  %70 = load ptr, ptr %69, align 8
  tail call void %70(ptr noundef %2) #13
  br label %.split.split

71:                                               ; preds = %65
  %72 = tail call i32 @ItemPointerCompare(ptr noundef nonnull %10, ptr noundef nonnull %5) #13
  %73 = icmp sgt i32 %72, 0
  br i1 %73, label %.backedge, label %.split35.us

.split35.us:                                      ; preds = %44, %71, %.split39
  %74 = getelementptr inbounds nuw i8, ptr %0, i64 96
  %75 = load ptr, ptr %0, align 8
  %76 = getelementptr inbounds nuw i8, ptr %75, i64 480
  %77 = load ptr, ptr %76, align 8
  %.not29 = icmp eq ptr %77, null
  br i1 %.not29, label %78, label %83, !prof !5

78:                                               ; preds = %.split35.us
  %79 = getelementptr inbounds nuw i8, ptr %75, i64 476
  %80 = load i8, ptr %79, align 4, !range !6, !noundef !7
  %81 = trunc nuw i8 %80 to i1
  br i1 %81, label %82, label %88

82:                                               ; preds = %78
  tail call void @pgstat_assoc_relation(ptr noundef nonnull %75) #13
  %.pre = load ptr, ptr %0, align 8
  %.phi.trans.insert = getelementptr inbounds nuw i8, ptr %.pre, i64 480
  %.pre43 = load ptr, ptr %.phi.trans.insert, align 8
  br label %83

83:                                               ; preds = %.split35.us, %82
  %84 = phi ptr [ %77, %.split35.us ], [ %.pre43, %82 ]
  %85 = getelementptr inbounds nuw i8, ptr %84, i64 24
  %86 = load i64, ptr %85, align 8
  %87 = add i64 %86, 1
  store i64 %87, ptr %85, align 8
  br label %88

88:                                               ; preds = %78, %83
  %89 = getelementptr inbounds nuw i8, ptr %0, i64 84
  %90 = load i32, ptr %89, align 4
  %91 = tail call ptr @ExecStoreBufferHeapTuple(ptr noundef nonnull %74, ptr noundef %2, i32 noundef %90) #13
  br label %.loopexit

.loopexit:                                        ; preds = %.loopexit.split.split.us, %.loopexit.split.us, %88, %.split33.us
  %.0 = phi i1 [ false, %.split33.us ], [ true, %88 ], [ false, %.loopexit.split.us ], [ false, %.loopexit.split.split.us ]
  ret i1 %.0
}